; Function Attrs: mustprogress nounwind uwtable
define void @_ZN2cv4rgbd13OdometryFrameC2Ev(ptr noundef nonnull align 8 dereferenceable(616) initializes((0, 12)) %0) unnamed_addr #5 align 2 {
  store ptr getelementptr inbounds nuw inrange(-16, 24) (i8, ptr @_ZTVN2cv4rgbd9RgbdFrameE, i64 16), ptr %0, align 8, !tbaa !15
  %2 = getelementptr inbounds nuw i8, ptr %0, i64 8
  store i32 -1, ptr %2, align 8, !tbaa !33
  %3 = getelementptr inbounds nuw i8, ptr %0, i64 16
  tail call void @_ZN2cv3MatC1Ev(ptr noundef nonnull align 8 dereferenceable(96) %3) #31
  %4 = getelementptr inbounds nuw i8, ptr %0, i64 112
  tail call void @_ZN2cv3MatC1Ev(ptr noundef nonnull align 8 dereferenceable(96) %4) #31
  %5 = getelementptr inbounds nuw i8, ptr %0, i64 208
  tail call void @_ZN2cv3MatC1Ev(ptr noundef nonnull align 8 dereferenceable(96) %5) #31
  %6 = getelementptr inbounds nuw i8, ptr %0, i64 304
  tail call void @_ZN2cv3MatC1Ev(ptr noundef nonnull align 8 dereferenceable(96) %6) #31
  store ptr getelementptr inbounds nuw inrange(-16, 24) (i8, ptr @_ZTVN2cv4rgbd13OdometryFrameE, i64 16), ptr %0, align 8, !tbaa !15
  %7 = getelementptr inbounds nuw i8, ptr %0, i64 400
  tail call void @llvm.memset.p0.i64(ptr noundef nonnull align 8 dereferenceable(216) %7, i8 0, i64 216, i1 false)
  ret void
}